#include <math.h>
#include <stdio.h>
#include <stdlib.h>
#include <string.h>

int main()
{
    int n;
	scanf("%d",&n);
	int i;
	char a[2000];
	for(i=0;i<=n;i++)
	{
       gets(a);
int j;
	   for(j=0;j<strlen(a);j++)
		{
			switch(a[j])
			{
			case 'A':
				a[j]='T';
				break;
			case 'T':
				a[j]='A';
				break;
				case 'C':
				a[j]='G';
				break;
				case 'G':
				a[j]='C';
				break;
			}
		}
		int k;
		for(k=0;k<strlen(a);k++)
		{
			printf("%c",a[k]);
		}
		printf("\n");
	}
	return 0;
}
